; Function Attrs: mustprogress nofree norecurse nosync nounwind willreturn memory(argmem: read) uwtable
define noundef double @_ZNK8QuantLib17SquareRootProcess5driftEdd(ptr nocapture noundef nonnull readonly align 8 dereferenceable(176) %this, double %0, double noundef %x) unnamed_addr #8 align 2 {
entry:
  %speed_ = getelementptr inbounds nuw i8, ptr %this, i64 160
  %1 = load double, ptr %speed_, align 8, !tbaa !48
  %mean_ = getelementptr inbounds nuw i8, ptr %this, i64 152
  %2 = load double, ptr %mean_, align 8, !tbaa !47
  %sub = fsub double %2, %x
  %mul = fmul double %1, %sub
  ret double %mul
}